target datalayout = "e-m:e-p270:32:32-p271:32:32-p272:64:64-i64:64-i128:128-f80:128-n8:16:32:64-S128"
target triple = "x86_64-pc-linux-gnu"

; Function Attrs: nounwind uwtable
define dso_local ptr @str_cat(ptr noundef %0, ptr noundef %1) #0 {
  %3 = alloca ptr, align 8
  %4 = alloca ptr, align 8
  %5 = alloca i32, align 4
  %6 = alloca i32, align 4
  %7 = alloca ptr, align 8
  store ptr %0, ptr %3, align 8
  store ptr %1, ptr %4, align 8
  %8 = load ptr, ptr %3, align 8
  %9 = call i64 @strlen(ptr noundef %8) #7
  %10 = trunc i64 %9 to i32
  store i32 %10, ptr %5, align 4
  %11 = load ptr, ptr %4, align 8
  %12 = call i64 @strlen(ptr noundef %11) #7
  %13 = trunc i64 %12 to i32
  store i32 %13, ptr %6, align 4
  %14 = load i32, ptr %5, align 4
  %15 = load i32, ptr %6, align 4
  %16 = add i32 %14, %15
  %17 = add i32 %16, 1
  %18 = zext i32 %17 to i64
  %19 = call ptr @calloc_string(i64 noundef %18)
  store ptr %19, ptr %7, align 8
  %20 = load ptr, ptr %7, align 8
  %21 = load ptr, ptr %3, align 8
  %22 = load i32, ptr %5, align 4
  %23 = zext i32 %22 to i64
  call void @llvm.memcpy.p0.p0.i64(ptr align 1 %20, ptr align 1 %21, i64 %23, i1 false)
  %24 = load ptr, ptr %7, align 8
  %25 = load i32, ptr %5, align 4
  %26 = zext i32 %25 to i64
  %27 = getelementptr inbounds i8, ptr %24, i64 %26
  %28 = load ptr, ptr %4, align 8
  %29 = load i32, ptr %6, align 4
  %30 = zext i32 %29 to i64
  call void @llvm.memcpy.p0.p0.i64(ptr align 1 %27, ptr align 1 %28, i64 %30, i1 false)
  %31 = load ptr, ptr %7, align 8
  %32 = load i32, ptr %5, align 4
  %33 = load i32, ptr %6, align 4
  %34 = add i32 %32, %33
  %35 = zext i32 %34 to i64
  %36 = getelementptr inbounds i8, ptr %31, i64 %35
  store i8 0, ptr %36, align 1
  %37 = load ptr, ptr %7, align 8
  ret ptr %37
}