; Function Attrs: nounwind uwtable
define dso_local ptr @str_cat(ptr nocapture noundef readonly %0, ptr nocapture noundef readonly %1) local_unnamed_addr #7 {
  %3 = tail call i64 @strlen(ptr noundef nonnull dereferenceable(1) %0) #20
  %4 = trunc i64 %3 to i32
  %5 = tail call i64 @strlen(ptr noundef nonnull dereferenceable(1) %1) #20
  %6 = trunc i64 %5 to i32
  %7 = add i32 %6, %4
  %8 = add i32 %7, 1
  %9 = zext i32 %8 to i64
  %10 = tail call ptr @calloc_string(i64 noundef %9) #21
  %11 = and i64 %3, 4294967295
  tail call void @llvm.memcpy.p0.p0.i64(ptr align 1 %10, ptr align 1 %0, i64 %11, i1 false)
  %12 = getelementptr inbounds i8, ptr %10, i64 %11
  %13 = and i64 %5, 4294967295
  tail call void @llvm.memcpy.p0.p0.i64(ptr align 1 %12, ptr align 1 %1, i64 %13, i1 false)
  %14 = zext i32 %7 to i64
  %15 = getelementptr inbounds i8, ptr %10, i64 %14
  store i8 0, ptr %15, align 1
  ret ptr %10
}